(dp0
L8599L
F0.167
sL807L
F0.113
sL808L
F0.113
sL809L
F0.113
sL838L
F0.42
sL839L
F0.42
sL840L
F0.167
sL841L
F0.42
sL842L
F0.42
sL853L
F0.339
sL854L
F0.339
sL855L
F0.339
sL857L
F0.339
sL858L
F0.339
sL859L
F0.339
sL861L
F0.339
sL862L
F0.339
sL863L
F0.339
sL865L
F0.339
sL866L
F0.339
sL867L
F0.339
sL869L
F0.339
sL870L
F0.339
sL871L
F0.339
sL873L
F0.339
sL874L
F0.339
sL875L
F0.339
sL877L
F0.339
sL878L
F0.339
sL879L
F0.339
sL881L
F0.339
sL882L
F0.339
sL883L
F0.339
sL885L
F0.339
sL886L
F0.339
sL887L
F0.339
sL889L
F0.339
sL890L
F0.339
sL891L
F0.339
sL1317L
F0.167
sL1320L
F0.167
sL1321L
F0.167
sL1324L
F0.167
sL1325L
F0.167
sL1327L
F0.167
sL1328L
F0.167
sL1330L
F0.167
sL1331L
F0.167
sL1333L
F0.167
sL1334L
F0.167
sL1336L
F0.167
sL1337L
F0.167
sL1339L
F0.167
sL1340L
F0.167
sL1343L
F0.167
sL1344L
F0.167
sL1346L
F0.167
sL1347L
F0.167
sL1349L
F0.167
sL1350L
F0.167
sL1353L
F0.167
sL1354L
F0.167
sL1356L
F0.167
sL1357L
F0.167
sL1359L
F0.167
sL1360L
F0.167
sL1362L
F0.167
sL1365L
F0.167
sL1366L
F0.167
sL1367L
F0.167
sL1370L
F0.167
sL1371L
F0.167
sL1372L
F0.167
sL1373L
F0.167
sL1376L
F0.167
sL1377L
F0.167
sL1379L
F0.167
sL1380L
F0.167
sL1381L
F0.167
sL1382L
F0.167
sL1385L
F0.167
sL1386L
F0.167
sL1388L
F0.167
sL1389L
F0.167
sL1391L
F0.167
sL1392L
F0.167
sL1394L
F0.167
sL1395L
F0.167
sL1397L
F0.167
sL1398L
F0.167
sL1400L
F0.167
sL1401L
F0.167
sL1403L
F0.167
sL1404L
F0.167
sL1407L
F0.167
sL1408L
F0.167
sL1410L
F0.167
sL1411L
F0.167
sL1413L
F0.167
sL1414L
F0.167
sL1416L
F0.167
sL1417L
F0.167
sL1419L
F0.167
sL1420L
F0.167
sL1422L
F0.167
sL1423L
F0.167
sL1425L
F0.167
sL1426L
F0.167
sL1428L
F0.167
sL1429L
F0.167
sL1431L
F0.167
sL1432L
F0.167
sL1434L
F0.167
sL1473L
F0.339
sL1475L
F0.339
sL1476L
F0.339
sL1477L
F0.339
sL1479L
F0.339
sL1480L
F0.339
sL1481L
F0.339
sL1483L
F0.339
sL1484L
F0.339
sL1485L
F0.339
sL1487L
F0.339
sL1488L
F0.339
sL1489L
F0.339
sL1491L
F0.339
sL1492L
F0.339
sL1493L
F0.339
sL1495L
F0.339
sL1496L
F0.339
sL1497L
F0.339
sL1499L
F0.339
sL1500L
F0.339
sL1501L
F0.339
sL1503L
F0.339
sL1504L
F0.339
sL1505L
F0.339
sL1507L
F0.339
sL1508L
F0.339
sL1509L
F0.339
sL1511L
F0.339
sL1512L
F0.339
sL1513L
F0.339
sL1515L
F0.339
sL1516L
F0.339
sL1517L
F0.339
sL1519L
F0.339
sL1520L
F0.339
sL1521L
F0.339
sL1523L
F0.339
sL1524L
F0.339
sL1525L
F0.339
sL1527L
F0.339
sL1528L
F0.339
sL1529L
F0.339
sL1531L
F0.339
sL1532L
F0.339
sL1533L
F0.339
sL1535L
F0.339
sL1536L
F0.339
sL1537L
F0.339
sL1539L
F0.339
sL1540L
F0.339
sL1541L
F0.339
sL1543L
F0.339
sL1544L
F0.339
sL1545L
F0.339
sL1547L
F0.339
sL1548L
F0.339
sL1549L
F0.339
sL1551L
F0.339
sL1552L
F0.339
sL1553L
F0.339
sL1555L
F0.339
sL1556L
F0.339
sL1584L
F0.067
sL34646L
F0.22
sL34647L
F0.22
sL34648L
F0.22
sL34649L
F0.22
sL34650L
F0.22
sL34651L
F0.22
sL34652L
F0.22
sL34653L
F0.22
sL34654L
F0.22
sL34655L
F0.22
sL34656L
F0.22
sL34657L
F0.22
sL34658L
F0.22
sL34659L
F0.22
sL34660L
F0.22
sL34661L
F0.22
sL34662L
F0.22
sL34663L
F0.22
sL34664L
F0.22
sL34665L
F0.22
sL34666L
F0.22
sL34667L
F0.22
sL34668L
F0.22
sL34669L
F0.22
sL34670L
F0.22
sL34671L
F0.22
sL34672L
F0.22
sL34673L
F0.22
sL34674L
F0.22
sL34675L
F0.22
sL34676L
F0.22
sL34677L
F0.22
sL34678L
F0.22
sL34679L
F0.22
sL34680L
F0.22
sL34681L
F0.22
sL34682L
F0.22
sL34683L
F0.22
sL34684L
F0.22
sL34685L
F0.22
sL34686L
F0.22
sL34689L
F0.22
sL34690L
F0.22
sL34691L
F0.22
sL34692L
F0.22
sL34693L
F0.22
sL34694L
F0.22
sL34695L
F0.22
sL34696L
F0.22
sL34697L
F0.22
sL34698L
F0.22
sL34699L
F0.22
sL34700L
F0.22
sL35278L
F0.232
sL35279L
F0.232
sL35280L
F0.232
sL35281L
F0.232
sL35282L
F0.232
sL35283L
F0.067
sL35491L
F0.15
sL35522L
F0.15
sL2884L
F0.339
sL2885L
F0.339
sL2886L
F0.339
sL2888L
F0.339
sL2889L
F0.339
sL2890L
F0.339
sL2892L
F0.339
sL2893L
F0.339
sL2894L
F0.339
sL2896L
F0.339
sL2897L
F0.339
sL2898L
F0.339
sL2900L
F0.339
sL2901L
F0.339
sL2902L
F0.339
sL2904L
F0.339
sL2905L
F0.339
sL2906L
F0.339
sL2908L
F0.339
sL2909L
F0.339
sL2910L
F0.339
sL2912L
F0.167
sL2914L
F0.167
sL2916L
F0.167
sL2918L
F0.167
sL2920L
F0.167
sL2922L
F0.167
sL2924L
F0.167
sL2926L
F0.167
sL2928L
F0.167
sL2930L
F0.167
sL2932L
F0.167
sL2934L
F0.167
sL2936L
F0.167
sL2938L
F0.167
sL2940L
F0.339
sL2941L
F0.339
sL2942L
F0.339
sL2944L
F0.339
sL2945L
F0.339
sL2946L
F0.339
sL2948L
F0.339
sL2949L
F0.339
sL2950L
F0.339
sL2952L
F0.339
sL2953L
F0.339
sL2954L
F0.339
sL2956L
F0.339
sL2957L
F0.339
sL2958L
F0.339
sL2960L
F0.339
sL2961L
F0.339
sL2962L
F0.339
sL2964L
F0.339
sL2965L
F0.339
sL2966L
F0.339
sL2968L
F0.339
sL2969L
F0.339
sL2970L
F0.339
sL2972L
F0.339
sL2973L
F0.339
sL2974L
F0.339
sL2976L
F0.339
sL2977L
F0.339
sL2978L
F0.339
sL2980L
F0.339
sL2981L
F0.339
sL2982L
F0.339
sL2983L
F0.339
sL2984L
F0.339
sL2985L
F0.339
sL2987L
F0.339
sL2988L
F0.339
sL2989L
F0.339
sL2991L
F0.339
sL2992L
F0.339
sL2993L
F0.339
sL2995L
F0.339
sL2996L
F0.339
sL2997L
F0.339
sL2999L
F0.339
sL3000L
F0.339
sL3001L
F0.339
sL3003L
F0.339
sL3004L
F0.339
sL3005L
F0.339
sL3007L
F0.339
sL3008L
F0.339
sL3009L
F0.339
sL3011L
F0.339
sL3012L
F0.339
sL3013L
F0.339
sL3015L
F0.339
sL3016L
F0.339
sL3017L
F0.339
sL3019L
F0.339
sL3020L
F0.339
sL3021L
F0.339
sL3023L
F0.339
sL3024L
F0.339
sL3025L
F0.339
sL3027L
F0.339
sL3028L
F0.339
sL3029L
F0.339
sL3031L
F0.339
sL3032L
F0.339
sL3033L
F0.339
sL3035L
F0.339
sL3036L
F0.339
sL3037L
F0.339
sL3039L
F0.339
sL3040L
F0.339
sL3041L
F0.339
sL3043L
F0.339
sL3044L
F0.339
sL3045L
F0.339
sL3047L
F0.339
sL3048L
F0.339
sL3049L
F0.339
sL3051L
F0.339
sL3052L
F0.339
sL3053L
F0.339
sL3055L
F0.339
sL3056L
F0.339
sL3057L
F0.339
sL3059L
F0.339
sL3060L
F0.339
sL3061L
F0.339
sL3063L
F0.339
sL3064L
F0.339
sL3065L
F0.339
sL3067L
F0.339
sL3068L
F0.339
sL3069L
F0.339
sL3071L
F0.339
sL3072L
F0.339
sL3073L
F0.339
sL3075L
F0.339
sL3076L
F0.339
sL3077L
F0.339
sL3079L
F0.167
sL3081L
F0.167
sL3083L
F0.167
sL3085L
F0.167
sL3087L
F0.167
sL3089L
F0.167
sL3091L
F0.167
sL3093L
F0.167
sL3095L
F0.167
sL3097L
F0.167
sL3099L
F0.167
sL3101L
F0.167
sL3102L
F0.339
sL3103L
F0.339
sL3104L
F0.339
sL3106L
F0.339
sL3107L
F0.339
sL3108L
F0.339
sL3110L
F0.339
sL3111L
F0.339
sL3112L
F0.339
sL3114L
F0.339
sL3115L
F0.339
sL3116L
F0.339
sL3118L
F0.339
sL3119L
F0.339
sL3120L
F0.339
sL3122L
F0.339
sL3123L
F0.339
sL3124L
F0.339
sL3126L
F0.339
sL3127L
F0.339
sL3128L
F0.339
sL3130L
F0.339
sL3131L
F0.339
sL3132L
F0.339
sL3134L
F0.339
sL3135L
F0.339
sL3136L
F0.339
sL3138L
F0.167
sL3139L
F0.167
sL3140L
F0.167
sL3142L
F0.167
sL3143L
F0.167
sL3144L
F0.167
sL3146L
F0.167
sL3147L
F0.167
sL3148L
F0.167
sL3150L
F0.167
sL3151L
F0.167
sL3152L
F0.167
sL3154L
F0.167
sL3155L
F0.167
sL3156L
F0.167
sL3158L
F0.167
sL3159L
F0.167
sL3160L
F0.167
sL3162L
F0.167
sL3164L
F0.167
sL3166L
F0.167
sL3168L
F0.167
sL3170L
F0.167
sL3172L
F0.167
sL3174L
F0.167
sL3176L
F0.167
sL3178L
F0.167
sL3180L
F0.167
sL3181L
F0.167
sL3183L
F0.167
sL3284L
F1.34
sL3285L
F1.34
sL3286L
F1.34
sL3287L
F1.34
sL3288L
F1.34
sL3289L
F1.34
sL3290L
F1.34
sL3291L
F1.34
sL3292L
F1.34
sL3293L
F1.34
sL3294L
F1.34
sL3295L
F1.34
sL3296L
F1.34
sL3297L
F1.34
sL3298L
F1.34
sL3299L
F1.34
sL3300L
F1.34
sL3301L
F1.34
sL3302L
F1.34
sL3303L
F1.34
sL3304L
F1.34
sL3305L
F1.34
sL3306L
F1.34
sL3307L
F1.34
sL3308L
F1.34
sL3309L
F1.34
sL3310L
F1.34
sL3311L
F1.34
sL3312L
F1.34
sL3313L
F1.34
sL3314L
F1.34
sL3315L
F1.34
sL3316L
F1.34
sL3317L
F1.34
sL3318L
F1.34
sL3319L
F1.34
sL3320L
F1.34
sL3321L
F1.34
sL3322L
F1.34
sL3323L
F1.34
sL3324L
F1.34
sL3325L
F1.34
sL3326L
F1.34
sL3327L
F1.34
sL3328L
F1.34
sL3329L
F1.34
sL3330L
F1.34
sL3331L
F1.34
sL3332L
F1.34
sL3333L
F1.34
sL3334L
F1.34
sL3335L
F1.34
sL3336L
F1.34
sL3337L
F1.34
sL3338L
F1.34
sL3339L
F1.34
sL3340L
F1.34
sL3341L
F1.34
sL3342L
F1.34
sL3343L
F1.34
sL3344L
F1.34
sL3345L
F1.34
sL3346L
F1.34
sL3347L
F1.34
sL3348L
F1.34
sL3349L
F1.34
sL3350L
F1.34
sL3351L
F1.34
sL3352L
F1.34
sL3353L
F1.34
sL3354L
F1.34
sL3355L
F1.34
sL3356L
F1.34
sL3357L
F1.34
sL3358L
F1.34
sL3359L
F1.34
sL3360L
F1.34
sL3361L
F1.34
sL3362L
F1.34
sL3363L
F1.34
sL3364L
F1.34
sL3365L
F1.34
sL3366L
F1.34
sL3367L
F1.34
sL3368L
F1.34
sL3369L
F1.34
sL3370L
F1.34
sL3371L
F1.34
sL3372L
F1.34
sL3373L
F1.34
sL3374L
F1.34
sL3375L
F1.34
sL3376L
F1.34
sL3377L
F1.34
sL3378L
F1.34
sL3379L
F1.34
sL3380L
F1.34
sL3381L
F1.34
sL3382L
F1.34
sL3383L
F1.34
sL3384L
F1.34
sL3385L
F1.34
sL3386L
F1.34
sL3387L
F1.34
sL3388L
F1.34
sL3389L
F1.34
sL3390L
F1.34
sL3391L
F1.34
sL3392L
F1.34
sL3393L
F1.34
sL3394L
F1.34
sL3395L
F1.34
sL3396L
F1.34
sL3397L
F1.34
sL3398L
F1.34
sL3399L
F1.34
sL3400L
F1.34
sL3401L
F1.34
sL3402L
F1.34
sL3403L
F1.34
sL3404L
F1.34
sL3405L
F1.34
sL3406L
F1.34
sL3407L
F1.34
sL3408L
F1.34
sL3409L
F1.34
sL3410L
F1.34
sL3411L
F1.34
sL3412L
F1.34
sL3413L
F1.34
sL3414L
F1.34
sL3415L
F1.34
sL3416L
F1.34
sL3417L
F1.34
sL3418L
F1.34
sL3419L
F1.34
sL3420L
F1.34
sL3421L
F1.34
sL3422L
F1.34
sL3423L
F1.34
sL3424L
F1.34
sL3425L
F1.34
sL3426L
F1.34
sL3427L
F1.34
sL3428L
F1.34
sL3429L
F1.34
sL3430L
F1.34
sL3431L
F1.34
sL3432L
F1.34
sL3433L
F1.34
sL3434L
F1.34
sL3435L
F1.34
sL3436L
F1.34
sL3437L
F1.34
sL3438L
F1.34
sL3439L
F1.34
sL3440L
F1.34
sL3441L
F1.34
sL3442L
F1.34
sL3443L
F1.34
sL3444L
F1.34
sL3445L
F1.34
sL3446L
F1.34
sL3447L
F1.34
sL3448L
F1.34
sL3449L
F1.34
sL3450L
F1.34
sL3451L
F1.34
sL3452L
F1.34
sL3453L
F1.34
sL3454L
F1.34
sL3455L
F1.34
sL3456L
F1.34
sL3457L
F1.34
sL3458L
F1.34
sL3459L
F1.34
sL3460L
F1.34
sL3461L
F1.34
sL3462L
F1.34
sL3463L
F1.34
sL3464L
F1.34
sL3465L
F1.34
sL3466L
F1.34
sL3467L
F1.34
sL3468L
F1.34
sL3469L
F1.34
sL3470L
F1.34
sL3471L
F1.34
sL3472L
F1.34
sL3473L
F1.34
sL3474L
F1.34
sL3475L
F1.34
sL3476L
F1.34
sL3477L
F1.34
sL3478L
F1.34
sL3479L
F1.34
sL3480L
F1.34
sL3481L
F1.34
sL3482L
F1.34
sL3483L
F1.34
sL3484L
F1.34
sL3485L
F1.34
sL3486L
F1.34
sL3487L
F1.34
sL3488L
F1.34
sL3489L
F1.34
sL3490L
F1.34
sL3491L
F1.34
sL3492L
F1.34
sL3493L
F1.34
sL3494L
F1.34
sL3495L
F1.34
sL3496L
F1.34
sL3497L
F1.34
sL3498L
F1.34
sL3499L
F1.34
sL3500L
F1.34
sL3501L
F1.34
sL3502L
F1.34
sL3503L
F1.34
sL3504L
F1.34
sL3505L
F1.34
sL3506L
F1.34
sL3507L
F1.34
sL3508L
F1.34
sL3509L
F1.34
sL3510L
F1.34
sL3511L
F1.34
sL3512L
F1.34
sL3513L
F1.34
sL3514L
F1.34
sL3515L
F1.34
sL3516L
F1.34
sL3517L
F1.34
sL3518L
F1.34
sL3519L
F1.34
sL3520L
F1.34
sL3521L
F1.34
sL3522L
F1.34
sL3523L
F1.34
sL3524L
F1.34
sL3525L
F1.34
sL3526L
F1.34
sL3527L
F1.34
sL3528L
F1.34
sL3529L
F1.34
sL3530L
F1.34
sL3531L
F1.34
sL3532L
F1.34
sL3533L
F1.34
sL3534L
F1.34
sL3535L
F1.34
sL3536L
F1.34
sL3537L
F1.34
sL3538L
F1.34
sL3539L
F1.34
sL3540L
F1.34
sL3541L
F1.34
sL3542L
F1.34
sL3543L
F1.34
sL3544L
F1.34
sL3545L
F1.34
sL3546L
F1.34
sL3547L
F1.34
sL3548L
F1.34
sL3549L
F1.34
sL3550L
F1.34
sL3551L
F1.34
sL3552L
F1.34
sL3553L
F1.34
sL3554L
F1.34
sL3555L
F1.34
sL3556L
F1.34
sL3557L
F1.34
sL3558L
F1.34
sL3559L
F1.34
sL3560L
F1.34
sL3561L
F1.34
sL3562L
F1.34
sL3563L
F1.34
sL3564L
F1.34
sL3565L
F1.34
sL3566L
F1.34
sL3567L
F1.34
sL3568L
F1.34
sL3569L
F1.34
sL3570L
F1.34
sL3571L
F1.34
sL3572L
F1.34
sL3573L
F1.34
sL3574L
F1.34
sL3575L
F1.34
sL3576L
F1.34
sL3577L
F1.34
sL3578L
F1.34
sL3579L
F1.34
sL3580L
F1.34
sL3581L
F1.34
sL3582L
F1.34
sL3583L
F1.34
sL3684L
F1.34
sL3685L
F1.34
sL3686L
F1.34
sL3687L
F1.34
sL3688L
F1.34
sL3689L
F1.34
sL3690L
F1.34
sL3691L
F1.34
sL3692L
F1.34
sL3693L
F1.34
sL3694L
F1.34
sL3695L
F1.34
sL3696L
F1.34
sL3697L
F1.34
sL3698L
F1.34
sL3699L
F1.34
sL3700L
F1.34
sL3701L
F1.34
sL3702L
F1.34
sL3703L
F1.34
sL3704L
F1.34
sL3705L
F1.34
sL3706L
F1.34
sL3707L
F1.34
sL3708L
F1.34
sL3709L
F1.34
sL3710L
F1.34
sL3711L
F1.34
sL3712L
F1.34
sL3713L
F1.34
sL3714L
F1.34
sL3715L
F1.34
sL3716L
F1.34
sL3717L
F1.34
sL3718L
F1.34
sL3719L
F1.34
sL3720L
F1.34
sL3721L
F1.34
sL3722L
F1.34
sL3723L
F1.34
sL3724L
F1.34
sL3725L
F1.34
sL3726L
F1.34
sL3727L
F1.34
sL3728L
F1.34
sL3729L
F1.34
sL3730L
F1.34
sL3731L
F1.34
sL3732L
F1.34
sL3733L
F1.34
sL3734L
F1.34
sL3735L
F1.34
sL3736L
F1.34
sL3737L
F1.34
sL3738L
F1.34
sL3739L
F1.34
sL3740L
F1.34
sL3741L
F1.34
sL3742L
F1.34
sL3743L
F1.34
sL3744L
F1.34
sL3745L
F1.34
sL3746L
F1.34
sL3747L
F1.34
sL3748L
F1.34
sL3749L
F1.34
sL3750L
F1.34
sL3751L
F1.34
sL3752L
F1.34
sL3753L
F1.34
sL3754L
F1.34
sL3755L
F1.34
sL3756L
F1.34
sL3757L
F1.34
sL3758L
F1.34
sL3759L
F1.34
sL3760L
F1.34
sL3761L
F1.34
sL3762L
F1.34
sL3763L
F1.34
sL3764L
F1.34
sL3765L
F1.34
sL3766L
F1.34
sL3767L
F1.34
sL3768L
F1.34
sL3769L
F1.34
sL3770L
F1.34
sL3771L
F1.34
sL3772L
F1.34
sL3773L
F1.34
sL3774L
F1.34
sL3775L
F1.34
sL3776L
F1.34
sL3777L
F1.34
sL3778L
F1.34
sL3779L
F1.34
sL3780L
F1.34
sL3781L
F1.34
sL3782L
F1.34
sL3783L
F1.34
sL3784L
F1.34
sL3785L
F1.34
sL3786L
F1.34
sL3787L
F1.34
sL3788L
F1.34
sL3789L
F1.34
sL3790L
F1.34
sL3791L
F1.34
sL3792L
F1.34
sL3793L
F1.34
sL3794L
F1.34
sL3795L
F1.34
sL3796L
F1.34
sL3797L
F1.34
sL3798L
F1.34
sL3799L
F1.34
sL3800L
F1.34
sL3801L
F1.34
sL3802L
F1.34
sL3803L
F1.34
sL3804L
F1.34
sL3805L
F1.34
sL3806L
F1.34
sL3807L
F1.34
sL3808L
F1.34
sL3809L
F1.34
sL3810L
F1.34
sL3811L
F1.34
sL3812L
F1.34
sL3813L
F1.34
sL3814L
F1.34
sL3815L
F1.34
sL3816L
F1.34
sL3817L
F1.34
sL3818L
F1.34
sL3819L
F1.34
sL3820L
F1.34
sL3821L
F1.34
sL3822L
F1.34
sL3823L
F1.34
sL3824L
F1.34
sL3825L
F1.34
sL3826L
F1.34
sL3827L
F1.34
sL3828L
F1.34
sL3829L
F1.34
sL3830L
F1.34
sL3831L
F1.34
sL3832L
F1.34
sL3833L
F1.34
sL3834L
F1.34
sL3835L
F1.34
sL3836L
F1.34
sL3837L
F1.34
sL3838L
F1.34
sL3839L
F1.34
sL3840L
F1.34
sL3841L
F1.34
sL3842L
F1.34
sL3843L
F1.34
sL3844L
F1.34
sL3845L
F1.34
sL3846L
F1.34
sL3847L
F1.34
sL3848L
F1.34
sL3849L
F1.34
sL3850L
F1.34
sL3851L
F1.34
sL3852L
F1.34
sL3853L
F1.34
sL3854L
F1.34
sL3855L
F1.34
sL3856L
F1.34
sL3857L
F1.34
sL3858L
F1.34
sL3859L
F1.34
sL3860L
F1.34
sL3861L
F1.34
sL3862L
F1.34
sL3863L
F1.34
sL3864L
F1.34
sL3865L
F1.34
sL3866L
F1.34
sL3867L
F1.34
sL3868L
F1.34
sL3869L
F1.34
sL3870L
F1.34
sL3871L
F1.34
sL3872L
F1.34
sL3873L
F1.34
sL3874L
F1.34
sL3875L
F1.34
sL3876L
F1.34
sL3877L
F1.34
sL3878L
F1.34
sL3879L
F1.34
sL3880L
F1.34
sL3881L
F1.34
sL3882L
F1.34
sL3883L
F1.34
sL3884L
F1.34
sL3885L
F1.34
sL3886L
F1.34
sL3887L
F1.34
sL3888L
F1.34
sL3889L
F1.34
sL3890L
F1.34
sL3891L
F1.34
sL3892L
F1.34
sL3893L
F1.34
sL3894L
F1.34
sL3895L
F1.34
sL3896L
F1.34
sL3897L
F1.34
sL3898L
F1.34
sL3899L
F1.34
sL3900L
F1.34
sL3901L
F1.34
sL3902L
F1.34
sL3903L
F1.34
sL3904L
F1.34
sL3905L
F1.34
sL3906L
F1.34
sL3907L
F1.34
sL3908L
F1.34
sL3909L
F1.34
sL3910L
F1.34
sL3911L
F1.34
sL3912L
F1.34
sL3913L
F1.34
sL3914L
F1.34
sL3915L
F1.34
sL3916L
F1.34
sL3917L
F1.34
sL3918L
F1.34
sL3919L
F1.34
sL3920L
F1.34
sL3921L
F1.34
sL3922L
F1.34
sL3923L
F1.34
sL3924L
F1.34
sL3925L
F1.34
sL3926L
F1.34
sL3927L
F1.34
sL3928L
F1.34
sL3929L
F1.34
sL3930L
F1.34
sL3931L
F1.34
sL3932L
F1.34
sL3933L
F1.34
sL3934L
F1.34
sL3935L
F1.34
sL3936L
F1.34
sL3937L
F1.34
sL3938L
F1.34
sL3939L
F1.34
sL3940L
F1.34
sL3941L
F1.34
sL3942L
F1.34
sL3943L
F1.34
sL3944L
F1.34
sL3945L
F1.34
sL3946L
F1.34
sL3947L
F1.34
sL3948L
F1.34
sL3949L
F1.34
sL3950L
F1.34
sL3951L
F1.34
sL3952L
F1.34
sL3953L
F1.34
sL3954L
F1.34
sL3955L
F1.34
sL3956L
F1.34
sL3957L
F1.34
sL3958L
F1.34
sL3959L
F1.34
sL3960L
F1.34
sL3961L
F1.34
sL3962L
F1.34
sL3963L
F1.34
sL3964L
F1.34
sL3965L
F1.34
sL3966L
F1.34
sL3967L
F1.34
sL3968L
F1.34
sL3969L
F1.34
sL3970L
F1.34
sL3971L
F1.34
sL3972L
F1.34
sL3973L
F1.34
sL3974L
F1.34
sL3975L
F1.34
sL3976L
F1.34
sL3977L
F1.34
sL3978L
F1.34
sL3979L
F1.34
sL3980L
F1.34
sL3981L
F1.34
sL3982L
F1.34
sL3983L
F1.34
sL4084L
F1.34
sL4085L
F1.34
sL4086L
F1.34
sL4087L
F1.34
sL4088L
F1.34
sL4089L
F1.34
sL4090L
F1.34
sL4091L
F1.34
sL4092L
F1.34
sL4093L
F1.34
sL4094L
F1.34
sL4095L
F1.34
sL4096L
F1.34
sL4097L
F1.34
sL4098L
F1.34
sL4099L
F1.34
sL4100L
F1.34
sL4101L
F1.34
sL4102L
F1.34
sL4103L
F1.34
sL4104L
F1.34
sL4105L
F1.34
sL4106L
F1.34
sL4107L
F1.34
sL4108L
F1.34
sL4109L
F1.34
sL4110L
F1.34
sL4111L
F1.34
sL4112L
F1.34
sL4113L
F1.34
sL4114L
F1.34
sL4115L
F1.34
sL4116L
F1.34
sL4117L
F1.34
sL4118L
F1.34
sL4119L
F1.34
sL4120L
F1.34
sL4121L
F1.34
sL4122L
F1.34
sL4123L
F1.34
sL4124L
F1.34
sL4125L
F1.34
sL4126L
F1.34
sL4127L
F1.34
sL4128L
F1.34
sL4129L
F1.34
sL4130L
F1.34
sL4131L
F1.34
sL4132L
F1.34
sL4133L
F1.34
sL4134L
F1.34
sL4135L
F1.34
sL4136L
F1.34
sL4137L
F1.34
sL4138L
F1.34
sL4139L
F1.34
sL4140L
F1.34
sL4141L
F1.34
sL4142L
F1.34
sL4143L
F1.34
sL4144L
F1.34
sL4145L
F1.34
sL4146L
F1.34
sL4147L
F1.34
sL4148L
F1.34
sL4149L
F1.34
sL4150L
F1.34
sL4151L
F1.34
sL4152L
F1.34
sL4153L
F1.34
sL4154L
F1.34
sL4155L
F1.34
sL4156L
F1.34
sL4157L
F1.34
sL4158L
F1.34
sL4159L
F1.34
sL4160L
F1.34
sL4161L
F1.34
sL4162L
F1.34
sL4163L
F1.34
sL4164L
F1.34
sL4165L
F1.34
sL4166L
F1.34
sL4167L
F1.34
sL4168L
F1.34
sL4169L
F1.34
sL4170L
F1.34
sL4171L
F1.34
sL4172L
F1.34
sL4173L
F1.34
sL4174L
F1.34
sL4175L
F1.34
sL4176L
F1.34
sL4177L
F1.34
sL4178L
F1.34
sL4179L
F1.34
sL4180L
F1.34
sL4181L
F1.34
sL4182L
F1.34
sL4183L
F1.34
sL4184L
F1.34
sL4185L
F1.34
sL4186L
F1.34
sL4187L
F1.34
sL4188L
F1.34
sL4189L
F1.34
sL4190L
F1.34
sL4191L
F1.34
sL4192L
F1.34
sL4193L
F1.34
sL4194L
F1.34
sL4195L
F1.34
sL4196L
F1.34
sL4197L
F1.34
sL4198L
F1.34
sL4199L
F1.34
sL4200L
F1.34
sL4201L
F1.34
sL4202L
F1.34
sL4203L
F1.34
sL4204L
F1.34
sL4205L
F1.34
sL4206L
F1.34
sL4207L
F1.34
sL4208L
F1.34
sL4209L
F1.34
sL4210L
F1.34
sL4211L
F1.34
sL4212L
F1.34
sL4213L
F1.34
sL4214L
F1.34
sL4215L
F1.34
sL4216L
F1.34
sL4217L
F1.34
sL4218L
F1.34
sL4219L
F1.34
sL4220L
F1.34
sL4221L
F1.34
sL4222L
F1.34
sL4223L
F1.34
sL4224L
F1.34
sL4225L
F1.34
sL4226L
F1.34
sL4227L
F1.34
sL4228L
F1.34
sL4229L
F1.34
sL4230L
F1.34
sL4231L
F1.34
sL4232L
F1.34
sL4233L
F1.34
sL4234L
F1.34
sL4235L
F1.34
sL4236L
F1.34
sL4237L
F1.34
sL4238L
F1.34
sL4239L
F1.34
sL4240L
F1.34
sL4241L
F1.34
sL4242L
F1.34
sL4243L
F1.34
sL4244L
F1.34
sL4245L
F1.34
sL4246L
F1.34
sL4247L
F1.34
sL4248L
F1.34
sL4249L
F1.34
sL4250L
F1.34
sL4251L
F1.34
sL4252L
F1.34
sL4253L
F1.34
sL4254L
F1.34
sL4255L
F1.34
sL4256L
F1.34
sL4257L
F1.34
sL4258L
F1.34
sL4259L
F1.34
sL4260L
F1.34
sL4261L
F1.34
sL4262L
F1.34
sL4263L
F1.34
sL4264L
F1.34
sL4265L
F1.34
sL4266L
F1.34
sL4267L
F1.34
sL4268L
F1.34
sL4269L
F1.34
sL4270L
F1.34
sL4271L
F1.34
sL4272L
F1.34
sL4273L
F1.34
sL4274L
F1.34
sL4275L
F1.34
sL4276L
F1.34
sL4277L
F1.34
sL4278L
F1.34
sL4279L
F1.34
sL4280L
F1.34
sL4281L
F1.34
sL4282L
F1.34
sL4283L
F1.34
sL4284L
F1.34
sL4285L
F1.34
sL4286L
F1.34
sL4287L
F1.34
sL4288L
F1.34
sL4289L
F1.34
sL4290L
F1.34
sL4291L
F1.34
sL4292L
F1.34
sL4293L
F1.34
sL4294L
F1.34
sL4295L
F1.34
sL4296L
F1.34
sL4297L
F1.34
sL4298L
F1.34
sL4299L
F1.34
sL4300L
F1.34
sL4301L
F1.34
sL4302L
F1.34
sL4303L
F1.34
sL4304L
F1.34
sL4305L
F1.34
sL4306L
F1.34
sL4307L
F1.34
sL4308L
F1.34
sL4309L
F1.34
sL4310L
F1.34
sL4311L
F1.34
sL4312L
F1.34
sL4313L
F1.34
sL4314L
F1.34
sL4315L
F1.34
sL4316L
F1.34
sL4317L
F1.34
sL4318L
F1.34
sL4319L
F1.34
sL4320L
F1.34
sL4321L
F1.34
sL4322L
F1.34
sL4323L
F1.34
sL4324L
F1.34
sL4325L
F1.34
sL4326L
F1.34
sL4327L
F1.34
sL4328L
F1.34
sL4329L
F1.34
sL4330L
F1.34
sL4331L
F1.34
sL4332L
F1.34
sL4333L
F1.34
sL4334L
F1.34
sL4335L
F1.34
sL4336L
F1.34
sL4337L
F1.34
sL4338L
F1.34
sL4339L
F1.34
sL4340L
F1.34
sL4341L
F1.34
sL4342L
F1.34
sL4343L
F1.34
sL4344L
F1.34
sL4345L
F1.34
sL4346L
F1.34
sL4347L
F1.34
sL4348L
F1.34
sL4349L
F1.34
sL4350L
F1.34
sL4351L
F1.34
sL4352L
F1.34
sL4353L
F1.34
sL4354L
F1.34
sL4355L
F1.34
sL4356L
F1.34
sL4357L
F1.34
sL4358L
F1.34
sL4359L
F1.34
sL4360L
F1.34
sL4361L
F1.34
sL4362L
F1.34
sL4363L
F1.34
sL4364L
F1.34
sL4365L
F1.34
sL4366L
F1.34
sL4367L
F1.34
sL4368L
F1.34
sL4369L
F1.34
sL4370L
F1.34
sL4371L
F1.34
sL4372L
F1.34
sL4373L
F1.34
sL4374L
F1.34
sL4375L
F1.34
sL4376L
F1.34
sL4377L
F1.34
sL4378L
F1.34
sL4379L
F1.34
sL4380L
F1.34
sL4381L
F1.34
sL4382L
F1.34
sL4383L
F1.34
sL4481L
F0.339
sL4483L
F0.339
sL4484L
F0.339
sL4486L
F0.339
sL4487L
F0.339
sL4489L
F0.339
sL4490L
F0.339
sL4492L
F0.339
sL4493L
F0.339
sL4495L
F0.339
sL4496L
F0.339
sL4498L
F0.339
sL4499L
F0.339
sL4501L
F0.339
sL4502L
F0.339
sL4504L
F0.339
sL4505L
F0.339
sL4507L
F0.339
sL4509L
F0.339
sL4510L
F0.339
sL4587L
F0.339
sL4589L
F0.339
sL4590L
F0.339
sL4592L
F0.339
sL4593L
F0.339
sL4595L
F0.339
sL4596L
F0.339
sL4598L
F0.339
sL4599L
F0.339
sL4601L
F0.339
sL4602L
F0.339
sL4604L
F0.339
sL4605L
F0.339
sL4607L
F0.339
sL4608L
F0.339
sL4610L
F0.339
sL4611L
F0.339
sL4613L
F0.339
sL4614L
F0.339
sL4616L
F0.339
sL4617L
F0.339
sL4619L
F0.339
sL7252L
F0.167
sL7253L
F0.167
sL7254L
F0.167
sL7256L
F0.167
sL7257L
F0.167
sL7258L
F0.167
sL7260L
F0.167
sL7261L
F0.167
sL7262L
F0.167
sL7264L
F0.167
sL7265L
F0.167
sL7266L
F0.167
sL7268L
F0.167
sL7269L
F0.167
sL7270L
F0.167
sL7272L
F0.167
sL7273L
F0.167
sL7274L
F0.167
sL7276L
F0.167
sL7277L
F0.167
sL7278L
F0.167
s.